target datalayout = "e-m:e-p270:32:32-p271:32:32-p272:64:64-i64:64-i128:128-f80:128-n8:16:32:64-S128"
target triple = "x86_64-pc-linux-gnu"

%struct.H5O_pline_t = type { %struct.H5O_shared_t, i32, i64, i64, ptr }
%struct.H5O_shared_t = type { i32, ptr, i32, %union.anon.1 }
%union.anon.1 = type { %struct.H5O_mesg_loc_t }
%struct.H5O_mesg_loc_t = type { i32, i64 }
%struct.H5Z_filter_info_t = type { i32, i32, [12 x i8], ptr, i64, [4 x i32], ptr }

@.str = private unnamed_addr constant [97 x i8] c"generated/home/dtcxzyw/WorkSpace/Projects/compilers/llvm-opt-benchmark/bench/hdf5/hdf5/src/H5Z.c\00", align 1
@H5E_PLINE_g = external global i64, align 8
@H5E_NOTFOUND_g = external global i64, align 8
@.str.27 = private unnamed_addr constant [23 x i8] c"filter not in pipeline\00", align 1
@__func__.H5Z_delete = private unnamed_addr constant [11 x i8] c"H5Z_delete\00", align 1
@H5E_CANTFREE_g = external global i64, align 8
@.str.38 = private unnamed_addr constant [28 x i8] c"can't release pipeline info\00", align 1

; Function Attrs: nounwind uwtable
define i32 @H5Z_delete(ptr noundef %0, i32 noundef %1) #0 {
  %3 = alloca ptr, align 8
  %4 = alloca i32, align 4
  %5 = alloca i32, align 4
  %6 = alloca i8, align 1
  %7 = alloca i64, align 8
  %8 = alloca i8, align 1
  store ptr %0, ptr %3, align 8
  store i32 %1, ptr %4, align 4
  store i32 0, ptr %5, align 4
  store i8 0, ptr %6, align 1
  %9 = load ptr, ptr %3, align 8
  %10 = getelementptr inbounds %struct.H5O_pline_t, ptr %9, i32 0, i32 3
  %11 = load i64, ptr %10, align 8
  %12 = icmp eq i64 %11, 0
  br i1 %12, label %13, label %16

13:                                               ; preds = %2
  br label %14

14:                                               ; preds = %13
  store i32 0, ptr %5, align 4
  br label %294

15:                                               ; No predecessors!
  br label %16

16:                                               ; preds = %15, %2
  %17 = load i32, ptr %4, align 4
  %18 = icmp eq i32 0, %17
  br i1 %18, label %19, label %39

19:                                               ; preds = %16
  %20 = load ptr, ptr %3, align 8
  %21 = call i32 @H5O_msg_reset(i32 noundef 11, ptr noundef %20)
  %22 = icmp slt i32 %21, 0
  br i1 %22, label %23, label %38

23:                                               ; preds = %19
  br label %24

24:                                               ; preds = %23
  br label %25

25:                                               ; preds = %24
  br label %26

26:                                               ; preds = %25
  %27 = load i64, ptr @H5E_PLINE_g, align 8
  %28 = load i64, ptr @H5E_CANTFREE_g, align 8
  %29 = call i32 (ptr, ptr, i32, i64, i64, ptr, ...) @H5E_printf_stack(ptr noundef @.str, ptr noundef @__func__.H5Z_delete, i32 noundef 1652, i64 noundef %27, i64 noundef %28, ptr noundef @.str.38)
  br label %30

30:                                               ; preds = %26
  store i8 1, ptr %6, align 1
  %31 = load i8, ptr %6, align 1
  %32 = trunc i8 %31 to i1
  %33 = zext i1 %32 to i8
  store i8 %33, ptr %6, align 1
  br label %34

34:                                               ; preds = %30
  br label %35

35:                                               ; preds = %34
  store i32 -1, ptr %5, align 4
  br label %294

36:                                               ; No predecessors!
  br label %37

37:                                               ; preds = %36
  br label %38

38:                                               ; preds = %37, %19
  br label %293

39:                                               ; preds = %16
  store i8 0, ptr %8, align 1
  store i64 0, ptr %7, align 8
  br label %40

40:                                               ; preds = %58, %39
  %41 = load i64, ptr %7, align 8
  %42 = load ptr, ptr %3, align 8
  %43 = getelementptr inbounds %struct.H5O_pline_t, ptr %42, i32 0, i32 3
  %44 = load i64, ptr %43, align 8
  %45 = icmp ult i64 %41, %44
  br i1 %45, label %46, label %61

46:                                               ; preds = %40
  %47 = load ptr, ptr %3, align 8
  %48 = getelementptr inbounds %struct.H5O_pline_t, ptr %47, i32 0, i32 4
  %49 = load ptr, ptr %48, align 8
  %50 = load i64, ptr %7, align 8
  %51 = getelementptr inbounds %struct.H5Z_filter_info_t, ptr %49, i64 %50
  %52 = getelementptr inbounds %struct.H5Z_filter_info_t, ptr %51, i32 0, i32 0
  %53 = load i32, ptr %52, align 8
  %54 = load i32, ptr %4, align 4
  %55 = icmp eq i32 %53, %54
  br i1 %55, label %56, label %57

56:                                               ; preds = %46
  store i8 1, ptr %8, align 1
  br label %61

57:                                               ; preds = %46
  br label %58

58:                                               ; preds = %57
  %59 = load i64, ptr %7, align 8
  %60 = add i64 %59, 1
  store i64 %60, ptr %7, align 8
  br label %40

61:                                               ; preds = %56, %40
  %62 = load i8, ptr %8, align 1
  %63 = trunc i8 %62 to i1
  br i1 %63, label %79, label %64

64:                                               ; preds = %61
  br label %65

65:                                               ; preds = %64
  br label %66

66:                                               ; preds = %65
  br label %67

67:                                               ; preds = %66
  %68 = load i64, ptr @H5E_PLINE_g, align 8
  %69 = load i64, ptr @H5E_NOTFOUND_g, align 8
  %70 = call i32 (ptr, ptr, i32, i64, i64, ptr, ...) @H5E_printf_stack(ptr noundef @.str, ptr noundef @__func__.H5Z_delete, i32 noundef 1668, i64 noundef %68, i64 noundef %69, ptr noundef @.str.27)
  br label %71

71:                                               ; preds = %67
  store i8 1, ptr %6, align 1
  %72 = load i8, ptr %6, align 1
  %73 = trunc i8 %72 to i1
  %74 = zext i1 %73 to i8
  store i8 %74, ptr %6, align 1
  br label %75

75:                                               ; preds = %71
  br label %76

76:                                               ; preds = %75
  store i32 -1, ptr %5, align 4
  br label %294

77:                                               ; No predecessors!
  br label %78

78:                                               ; preds = %77
  br label %79

79:                                               ; preds = %78, %61
  %80 = load ptr, ptr %3, align 8
  %81 = getelementptr inbounds %struct.H5O_pline_t, ptr %80, i32 0, i32 4
  %82 = load ptr, ptr %81, align 8
  %83 = load i64, ptr %7, align 8
  %84 = getelementptr inbounds %struct.H5Z_filter_info_t, ptr %82, i64 %83
  %85 = getelementptr inbounds %struct.H5Z_filter_info_t, ptr %84, i32 0, i32 3
  %86 = load ptr, ptr %85, align 8
  %87 = icmp ne ptr %86, null
  br i1 %87, label %88, label %105

88:                                               ; preds = %79
  %89 = load ptr, ptr %3, align 8
  %90 = getelementptr inbounds %struct.H5O_pline_t, ptr %89, i32 0, i32 4
  %91 = load ptr, ptr %90, align 8
  %92 = load i64, ptr %7, align 8
  %93 = getelementptr inbounds %struct.H5Z_filter_info_t, ptr %91, i64 %92
  %94 = getelementptr inbounds %struct.H5Z_filter_info_t, ptr %93, i32 0, i32 3
  %95 = load ptr, ptr %94, align 8
  %96 = load ptr, ptr %3, align 8
  %97 = getelementptr inbounds %struct.H5O_pline_t, ptr %96, i32 0, i32 4
  %98 = load ptr, ptr %97, align 8
  %99 = load i64, ptr %7, align 8
  %100 = getelementptr inbounds %struct.H5Z_filter_info_t, ptr %98, i64 %99
  %101 = getelementptr inbounds %struct.H5Z_filter_info_t, ptr %100, i32 0, i32 2
  %102 = getelementptr inbounds [12 x i8], ptr %101, i64 0, i64 0
  %103 = icmp ne ptr %95, %102
  br i1 %103, label %104, label %105

104:                                              ; preds = %88
  br label %105

105:                                              ; preds = %104, %88, %79
  %106 = load ptr, ptr %3, align 8
  %107 = getelementptr inbounds %struct.H5O_pline_t, ptr %106, i32 0, i32 4
  %108 = load ptr, ptr %107, align 8
  %109 = load i64, ptr %7, align 8
  %110 = getelementptr inbounds %struct.H5Z_filter_info_t, ptr %108, i64 %109
  %111 = getelementptr inbounds %struct.H5Z_filter_info_t, ptr %110, i32 0, i32 3
  %112 = load ptr, ptr %111, align 8
  %113 = load ptr, ptr %3, align 8
  %114 = getelementptr inbounds %struct.H5O_pline_t, ptr %113, i32 0, i32 4
  %115 = load ptr, ptr %114, align 8
  %116 = load i64, ptr %7, align 8
  %117 = getelementptr inbounds %struct.H5Z_filter_info_t, ptr %115, i64 %116
  %118 = getelementptr inbounds %struct.H5Z_filter_info_t, ptr %117, i32 0, i32 2
  %119 = getelementptr inbounds [12 x i8], ptr %118, i64 0, i64 0
  %120 = icmp ne ptr %112, %119
  br i1 %120, label %121, label %136

121:                                              ; preds = %105
  %122 = load ptr, ptr %3, align 8
  %123 = getelementptr inbounds %struct.H5O_pline_t, ptr %122, i32 0, i32 4
  %124 = load ptr, ptr %123, align 8
  %125 = load i64, ptr %7, align 8
  %126 = getelementptr inbounds %struct.H5Z_filter_info_t, ptr %124, i64 %125
  %127 = getelementptr inbounds %struct.H5Z_filter_info_t, ptr %126, i32 0, i32 3
  %128 = load ptr, ptr %127, align 8
  %129 = call ptr @H5MM_xfree(ptr noundef %128)
  %130 = load ptr, ptr %3, align 8
  %131 = getelementptr inbounds %struct.H5O_pline_t, ptr %130, i32 0, i32 4
  %132 = load ptr, ptr %131, align 8
  %133 = load i64, ptr %7, align 8
  %134 = getelementptr inbounds %struct.H5Z_filter_info_t, ptr %132, i64 %133
  %135 = getelementptr inbounds %struct.H5Z_filter_info_t, ptr %134, i32 0, i32 3
  store ptr %129, ptr %135, align 8
  br label %136

136:                                              ; preds = %121, %105
  %137 = load ptr, ptr %3, align 8
  %138 = getelementptr inbounds %struct.H5O_pline_t, ptr %137, i32 0, i32 4
  %139 = load ptr, ptr %138, align 8
  %140 = load i64, ptr %7, align 8
  %141 = getelementptr inbounds %struct.H5Z_filter_info_t, ptr %139, i64 %140
  %142 = getelementptr inbounds %struct.H5Z_filter_info_t, ptr %141, i32 0, i32 6
  %143 = load ptr, ptr %142, align 8
  %144 = icmp ne ptr %143, null
  br i1 %144, label %145, label %162

145:                                              ; preds = %136
  %146 = load ptr, ptr %3, align 8
  %147 = getelementptr inbounds %struct.H5O_pline_t, ptr %146, i32 0, i32 4
  %148 = load ptr, ptr %147, align 8
  %149 = load i64, ptr %7, align 8
  %150 = getelementptr inbounds %struct.H5Z_filter_info_t, ptr %148, i64 %149
  %151 = getelementptr inbounds %struct.H5Z_filter_info_t, ptr %150, i32 0, i32 6
  %152 = load ptr, ptr %151, align 8
  %153 = load ptr, ptr %3, align 8
  %154 = getelementptr inbounds %struct.H5O_pline_t, ptr %153, i32 0, i32 4
  %155 = load ptr, ptr %154, align 8
  %156 = load i64, ptr %7, align 8
  %157 = getelementptr inbounds %struct.H5Z_filter_info_t, ptr %155, i64 %156
  %158 = getelementptr inbounds %struct.H5Z_filter_info_t, ptr %157, i32 0, i32 5
  %159 = getelementptr inbounds [4 x i32], ptr %158, i64 0, i64 0
  %160 = icmp ne ptr %152, %159
  br i1 %160, label %161, label %162

161:                                              ; preds = %145
  br label %162

162:                                              ; preds = %161, %145, %136
  %163 = load ptr, ptr %3, align 8
  %164 = getelementptr inbounds %struct.H5O_pline_t, ptr %163, i32 0, i32 4
  %165 = load ptr, ptr %164, align 8
  %166 = load i64, ptr %7, align 8
  %167 = getelementptr inbounds %struct.H5Z_filter_info_t, ptr %165, i64 %166
  %168 = getelementptr inbounds %struct.H5Z_filter_info_t, ptr %167, i32 0, i32 6
  %169 = load ptr, ptr %168, align 8
  %170 = load ptr, ptr %3, align 8
  %171 = getelementptr inbounds %struct.H5O_pline_t, ptr %170, i32 0, i32 4
  %172 = load ptr, ptr %171, align 8
  %173 = load i64, ptr %7, align 8
  %174 = getelementptr inbounds %struct.H5Z_filter_info_t, ptr %172, i64 %173
  %175 = getelementptr inbounds %struct.H5Z_filter_info_t, ptr %174, i32 0, i32 5
  %176 = getelementptr inbounds [4 x i32], ptr %175, i64 0, i64 0
  %177 = icmp ne ptr %169, %176
  br i1 %177, label %178, label %193

178:                                              ; preds = %162
  %179 = load ptr, ptr %3, align 8
  %180 = getelementptr inbounds %struct.H5O_pline_t, ptr %179, i32 0, i32 4
  %181 = load ptr, ptr %180, align 8
  %182 = load i64, ptr %7, align 8
  %183 = getelementptr inbounds %struct.H5Z_filter_info_t, ptr %181, i64 %182
  %184 = getelementptr inbounds %struct.H5Z_filter_info_t, ptr %183, i32 0, i32 6
  %185 = load ptr, ptr %184, align 8
  %186 = call ptr @H5MM_xfree(ptr noundef %185)
  %187 = load ptr, ptr %3, align 8
  %188 = getelementptr inbounds %struct.H5O_pline_t, ptr %187, i32 0, i32 4
  %189 = load ptr, ptr %188, align 8
  %190 = load i64, ptr %7, align 8
  %191 = getelementptr inbounds %struct.H5Z_filter_info_t, ptr %189, i64 %190
  %192 = getelementptr inbounds %struct.H5Z_filter_info_t, ptr %191, i32 0, i32 6
  store ptr %186, ptr %192, align 8
  br label %193

193:                                              ; preds = %178, %162
  %194 = load i64, ptr %7, align 8
  %195 = add i64 %194, 1
  %196 = load ptr, ptr %3, align 8
  %197 = getelementptr inbounds %struct.H5O_pline_t, ptr %196, i32 0, i32 3
  %198 = load i64, ptr %197, align 8
  %199 = icmp ult i64 %195, %198
  br i1 %199, label %200, label %281

200:                                              ; preds = %193
  br label %201

201:                                              ; preds = %277, %200
  %202 = load i64, ptr %7, align 8
  %203 = add i64 %202, 1
  %204 = load ptr, ptr %3, align 8
  %205 = getelementptr inbounds %struct.H5O_pline_t, ptr %204, i32 0, i32 3
  %206 = load i64, ptr %205, align 8
  %207 = icmp ult i64 %203, %206
  br i1 %207, label %208, label %280

208:                                              ; preds = %201
  %209 = load ptr, ptr %3, align 8
  %210 = getelementptr inbounds %struct.H5O_pline_t, ptr %209, i32 0, i32 4
  %211 = load ptr, ptr %210, align 8
  %212 = load i64, ptr %7, align 8
  %213 = getelementptr inbounds %struct.H5Z_filter_info_t, ptr %211, i64 %212
  %214 = load ptr, ptr %3, align 8
  %215 = getelementptr inbounds %struct.H5O_pline_t, ptr %214, i32 0, i32 4
  %216 = load ptr, ptr %215, align 8
  %217 = load i64, ptr %7, align 8
  %218 = add i64 %217, 1
  %219 = getelementptr inbounds %struct.H5Z_filter_info_t, ptr %216, i64 %218
  call void @llvm.memcpy.p0.p0.i64(ptr align 8 %213, ptr align 8 %219, i64 64, i1 false)
  %220 = load ptr, ptr %3, align 8
  %221 = getelementptr inbounds %struct.H5O_pline_t, ptr %220, i32 0, i32 4
  %222 = load ptr, ptr %221, align 8
  %223 = load i64, ptr %7, align 8
  %224 = getelementptr inbounds %struct.H5Z_filter_info_t, ptr %222, i64 %223
  %225 = getelementptr inbounds %struct.H5Z_filter_info_t, ptr %224, i32 0, i32 3
  %226 = load ptr, ptr %225, align 8
  %227 = icmp ne ptr %226, null
  br i1 %227, label %228, label %253

228:                                              ; preds = %208
  %229 = load ptr, ptr %3, align 8
  %230 = getelementptr inbounds %struct.H5O_pline_t, ptr %229, i32 0, i32 4
  %231 = load ptr, ptr %230, align 8
  %232 = load i64, ptr %7, align 8
  %233 = getelementptr inbounds %struct.H5Z_filter_info_t, ptr %231, i64 %232
  %234 = getelementptr inbounds %struct.H5Z_filter_info_t, ptr %233, i32 0, i32 3
  %235 = load ptr, ptr %234, align 8
  %236 = call i64 @strlen(ptr noundef %235) #9
  %237 = add i64 %236, 1
  %238 = icmp ule i64 %237, 12
  br i1 %238, label %239, label %253

239:                                              ; preds = %228
  %240 = load ptr, ptr %3, align 8
  %241 = getelementptr inbounds %struct.H5O_pline_t, ptr %240, i32 0, i32 4
  %242 = load ptr, ptr %241, align 8
  %243 = load i64, ptr %7, align 8
  %244 = getelementptr inbounds %struct.H5Z_filter_info_t, ptr %242, i64 %243
  %245 = getelementptr inbounds %struct.H5Z_filter_info_t, ptr %244, i32 0, i32 2
  %246 = getelementptr inbounds [12 x i8], ptr %245, i64 0, i64 0
  %247 = load ptr, ptr %3, align 8
  %248 = getelementptr inbounds %struct.H5O_pline_t, ptr %247, i32 0, i32 4
  %249 = load ptr, ptr %248, align 8
  %250 = load i64, ptr %7, align 8
  %251 = getelementptr inbounds %struct.H5Z_filter_info_t, ptr %249, i64 %250
  %252 = getelementptr inbounds %struct.H5Z_filter_info_t, ptr %251, i32 0, i32 3
  store ptr %246, ptr %252, align 8
  br label %253

253:                                              ; preds = %239, %228, %208
  %254 = load ptr, ptr %3, align 8
  %255 = getelementptr inbounds %struct.H5O_pline_t, ptr %254, i32 0, i32 4
  %256 = load ptr, ptr %255, align 8
  %257 = load i64, ptr %7, align 8
  %258 = getelementptr inbounds %struct.H5Z_filter_info_t, ptr %256, i64 %257
  %259 = getelementptr inbounds %struct.H5Z_filter_info_t, ptr %258, i32 0, i32 4
  %260 = load i64, ptr %259, align 8
  %261 = icmp ule i64 %260, 4
  br i1 %261, label %262, label %276

262:                                              ; preds = %253
  %263 = load ptr, ptr %3, align 8
  %264 = getelementptr inbounds %struct.H5O_pline_t, ptr %263, i32 0, i32 4
  %265 = load ptr, ptr %264, align 8
  %266 = load i64, ptr %7, align 8
  %267 = getelementptr inbounds %struct.H5Z_filter_info_t, ptr %265, i64 %266
  %268 = getelementptr inbounds %struct.H5Z_filter_info_t, ptr %267, i32 0, i32 5
  %269 = getelementptr inbounds [4 x i32], ptr %268, i64 0, i64 0
  %270 = load ptr, ptr %3, align 8
  %271 = getelementptr inbounds %struct.H5O_pline_t, ptr %270, i32 0, i32 4
  %272 = load ptr, ptr %271, align 8
  %273 = load i64, ptr %7, align 8
  %274 = getelementptr inbounds %struct.H5Z_filter_info_t, ptr %272, i64 %273
  %275 = getelementptr inbounds %struct.H5Z_filter_info_t, ptr %274, i32 0, i32 6
  store ptr %269, ptr %275, align 8
  br label %276

276:                                              ; preds = %262, %253
  br label %277

277:                                              ; preds = %276
  %278 = load i64, ptr %7, align 8
  %279 = add i64 %278, 1
  store i64 %279, ptr %7, align 8
  br label %201

280:                                              ; preds = %201
  br label %281

281:                                              ; preds = %280, %193
  %282 = load ptr, ptr %3, align 8
  %283 = getelementptr inbounds %struct.H5O_pline_t, ptr %282, i32 0, i32 3
  %284 = load i64, ptr %283, align 8
  %285 = add i64 %284, -1
  store i64 %285, ptr %283, align 8
  %286 = load ptr, ptr %3, align 8
  %287 = getelementptr inbounds %struct.H5O_pline_t, ptr %286, i32 0, i32 4
  %288 = load ptr, ptr %287, align 8
  %289 = load ptr, ptr %3, align 8
  %290 = getelementptr inbounds %struct.H5O_pline_t, ptr %289, i32 0, i32 3
  %291 = load i64, ptr %290, align 8
  %292 = getelementptr inbounds %struct.H5Z_filter_info_t, ptr %288, i64 %291
  call void @llvm.memset.p0.i64(ptr align 8 %292, i8 0, i64 64, i1 false)
  br label %293

293:                                              ; preds = %281, %38
  br label %294

294:                                              ; preds = %293, %76, %35, %14
  %295 = load i32, ptr %5, align 4
  ret i32 %295
}