; Function Attrs: nounwind uwtable
define range(i32 -1, 1) i32 @H5Z_delete(ptr noundef %0, i32 noundef %1) local_unnamed_addr #0 {
  %3 = getelementptr inbounds i8, ptr %0, i64 56
  %4 = load i64, ptr %3, align 8
  %5 = icmp eq i64 %4, 0
  br i1 %5, label %79, label %6

6:                                                ; preds = %2
  %7 = icmp eq i32 %1, 0
  br i1 %7, label %10, label %.preheader67

.preheader67:                                     ; preds = %6
  %8 = getelementptr inbounds i8, ptr %0, i64 64
  %9 = load ptr, ptr %8, align 8
  br label %17

10:                                               ; preds = %6
  %11 = tail call i32 @H5O_msg_reset(i32 noundef 11, ptr noundef nonnull %0) #9
  %12 = icmp slt i32 %11, 0
  br i1 %12, label %13, label %79

13:                                               ; preds = %10
  %14 = load i64, ptr @H5E_PLINE_g, align 8
  %15 = load i64, ptr @H5E_CANTFREE_g, align 8
  %16 = tail call i32 (ptr, ptr, i32, i64, i64, ptr, ...) @H5E_printf_stack(ptr noundef nonnull @.str, ptr noundef nonnull @__func__.H5Z_delete, i32 noundef 1652, i64 noundef %14, i64 noundef %15, ptr noundef nonnull @.str.38) #9
  br label %79

17:                                               ; preds = %.preheader67, %21
  %.05870 = phi i64 [ 0, %.preheader67 ], [ %22, %21 ]
  %18 = getelementptr inbounds %struct.H5Z_filter_info_t, ptr %9, i64 %.05870
  %19 = load i32, ptr %18, align 8
  %20 = icmp eq i32 %19, %1
  br i1 %20, label %26, label %21

21:                                               ; preds = %17
  %22 = add nuw i64 %.05870, 1
  %exitcond.not = icmp eq i64 %22, %4
  br i1 %exitcond.not, label %.critedge, label %17

.critedge:                                        ; preds = %21
  %23 = load i64, ptr @H5E_PLINE_g, align 8
  %24 = load i64, ptr @H5E_NOTFOUND_g, align 8
  %25 = tail call i32 (ptr, ptr, i32, i64, i64, ptr, ...) @H5E_printf_stack(ptr noundef nonnull @.str, ptr noundef nonnull @__func__.H5Z_delete, i32 noundef 1668, i64 noundef %23, i64 noundef %24, ptr noundef nonnull @.str.27) #9
  br label %79

26:                                               ; preds = %17
  %27 = getelementptr inbounds i8, ptr %18, i64 24
  %28 = load ptr, ptr %27, align 8
  %29 = getelementptr inbounds i8, ptr %18, i64 8
  %.not = icmp eq ptr %28, %29
  br i1 %.not, label %34, label %30

30:                                               ; preds = %26
  %31 = tail call ptr @H5MM_xfree(ptr noundef %28) #9
  %32 = load ptr, ptr %8, align 8
  %33 = getelementptr inbounds %struct.H5Z_filter_info_t, ptr %32, i64 %.05870, i32 3
  store ptr %31, ptr %33, align 8
  %.pre = load ptr, ptr %8, align 8
  br label %34

34:                                               ; preds = %30, %26
  %35 = phi ptr [ %.pre, %30 ], [ %9, %26 ]
  %36 = getelementptr inbounds %struct.H5Z_filter_info_t, ptr %35, i64 %.05870
  %37 = getelementptr inbounds i8, ptr %36, i64 56
  %38 = load ptr, ptr %37, align 8
  %39 = getelementptr inbounds i8, ptr %36, i64 40
  %.not65 = icmp eq ptr %38, %39
  br i1 %.not65, label %44, label %40

40:                                               ; preds = %34
  %41 = tail call ptr @H5MM_xfree(ptr noundef %38) #9
  %42 = load ptr, ptr %8, align 8
  %43 = getelementptr inbounds %struct.H5Z_filter_info_t, ptr %42, i64 %.05870, i32 6
  store ptr %41, ptr %43, align 8
  br label %44

44:                                               ; preds = %40, %34
  %45 = add i64 %.05870, 1
  %46 = load i64, ptr %3, align 8
  %47 = icmp ult i64 %45, %46
  br i1 %47, label %.lr.ph, label %.loopexit

.lr.ph:                                           ; preds = %44, %71
  %48 = phi i64 [ %72, %71 ], [ %45, %44 ]
  %.171 = phi i64 [ %48, %71 ], [ %.05870, %44 ]
  %49 = load ptr, ptr %8, align 8
  %50 = getelementptr inbounds %struct.H5Z_filter_info_t, ptr %49, i64 %.171
  %51 = getelementptr inbounds %struct.H5Z_filter_info_t, ptr %49, i64 %48
  tail call void @llvm.memcpy.p0.p0.i64(ptr noundef nonnull align 8 dereferenceable(64) %50, ptr noundef nonnull align 8 dereferenceable(64) %51, i64 64, i1 false)
  %52 = load ptr, ptr %8, align 8
  %53 = getelementptr inbounds %struct.H5Z_filter_info_t, ptr %52, i64 %.171
  %54 = getelementptr inbounds i8, ptr %53, i64 24
  %55 = load ptr, ptr %54, align 8
  %.not66 = icmp eq ptr %55, null
  br i1 %.not66, label %62, label %56

56:                                               ; preds = %.lr.ph
  %57 = tail call i64 @strlen(ptr noundef nonnull dereferenceable(1) %55) #12
  %58 = add i64 %57, 1
  %59 = icmp ult i64 %58, 13
  br i1 %59, label %60, label %62

60:                                               ; preds = %56
  %61 = getelementptr inbounds i8, ptr %53, i64 8
  store ptr %61, ptr %54, align 8
  %.pre74 = load ptr, ptr %8, align 8
  br label %62

62:                                               ; preds = %60, %56, %.lr.ph
  %63 = phi ptr [ %.pre74, %60 ], [ %52, %56 ], [ %52, %.lr.ph ]
  %64 = getelementptr inbounds %struct.H5Z_filter_info_t, ptr %63, i64 %.171
  %65 = getelementptr inbounds i8, ptr %64, i64 32
  %66 = load i64, ptr %65, align 8
  %67 = icmp ult i64 %66, 5
  br i1 %67, label %68, label %71

68:                                               ; preds = %62
  %69 = getelementptr inbounds i8, ptr %64, i64 40
  %70 = getelementptr inbounds i8, ptr %64, i64 56
  store ptr %69, ptr %70, align 8
  br label %71

71:                                               ; preds = %62, %68
  %72 = add nuw i64 %48, 1
  %73 = load i64, ptr %3, align 8
  %74 = icmp ult i64 %72, %73
  br i1 %74, label %.lr.ph, label %.loopexit

.loopexit:                                        ; preds = %71, %44
  %75 = phi i64 [ %46, %44 ], [ %73, %71 ]
  %76 = add i64 %75, -1
  store i64 %76, ptr %3, align 8
  %77 = load ptr, ptr %8, align 8
  %78 = getelementptr inbounds %struct.H5Z_filter_info_t, ptr %77, i64 %76
  tail call void @llvm.memset.p0.i64(ptr noundef nonnull align 8 dereferenceable(64) %78, i8 0, i64 64, i1 false)
  br label %79

79:                                               ; preds = %2, %.loopexit, %10, %.critedge, %13
  %.059 = phi i32 [ -1, %13 ], [ 0, %10 ], [ 0, %.loopexit ], [ -1, %.critedge ], [ 0, %2 ]
  ret i32 %.059
}